target datalayout = "e-m:e-p270:32:32-p271:32:32-p272:64:64-i64:64-i128:128-f80:128-n8:16:32:64-S128"
target triple = "x86_64-pc-linux-gnu"

; Function Attrs: nounwind uwtable
define internal i32 @tf_h(i32 noundef %0, ptr noundef %1, i32 noundef %2) #0 {
  %4 = alloca i32, align 4
  %5 = alloca ptr, align 8
  %6 = alloca i32, align 4
  %7 = alloca [4 x i8], align 1
  %8 = alloca [4 x i8], align 1
  store i32 %0, ptr %4, align 4, !tbaa !11
  store ptr %1, ptr %5, align 8, !tbaa !21
  store i32 %2, ptr %6, align 4, !tbaa !11
  call void @llvm.lifetime.start.p0(i64 4, ptr %7) #6
  call void @llvm.lifetime.start.p0(i64 4, ptr %8) #6
  %9 = load i32, ptr %4, align 4, !tbaa !11
  %10 = getelementptr inbounds [4 x i8], ptr %7, i64 0, i64 0
  store i32 %9, ptr %10, align 1, !tbaa !15
  %11 = getelementptr inbounds [4 x i8], ptr %7, i64 0, i64 0
  %12 = load ptr, ptr %5, align 8, !tbaa !21
  %13 = load i32, ptr %6, align 4, !tbaa !11
  call void @tf_h0(ptr noundef %11, ptr noundef %12, i32 noundef %13)
  %14 = getelementptr inbounds [4 x i8], ptr %7, i64 0, i64 0
  %15 = load i8, ptr %14, align 1, !tbaa !15
  %16 = zext i8 %15 to i32
  %17 = getelementptr inbounds [4 x i8], ptr %7, i64 0, i64 1
  %18 = load i8, ptr %17, align 1, !tbaa !15
  %19 = zext i8 %18 to i64
  %20 = getelementptr inbounds nuw [256 x i8], ptr @MD2, i64 0, i64 %19
  %21 = load i8, ptr %20, align 1, !tbaa !15
  %22 = zext i8 %21 to i32
  %23 = xor i32 %16, %22
  %24 = getelementptr inbounds [4 x i8], ptr %7, i64 0, i64 2
  %25 = load i8, ptr %24, align 1, !tbaa !15
  %26 = zext i8 %25 to i64
  %27 = getelementptr inbounds nuw [256 x i8], ptr @MD1, i64 0, i64 %26
  %28 = load i8, ptr %27, align 1, !tbaa !15
  %29 = zext i8 %28 to i32
  %30 = xor i32 %23, %29
  %31 = getelementptr inbounds [4 x i8], ptr %7, i64 0, i64 3
  %32 = load i8, ptr %31, align 1, !tbaa !15
  %33 = zext i8 %32 to i64
  %34 = getelementptr inbounds nuw [256 x i8], ptr @MD1, i64 0, i64 %33
  %35 = load i8, ptr %34, align 1, !tbaa !15
  %36 = zext i8 %35 to i32
  %37 = xor i32 %30, %36
  %38 = trunc i32 %37 to i8
  %39 = getelementptr inbounds [4 x i8], ptr %8, i64 0, i64 0
  store i8 %38, ptr %39, align 1, !tbaa !15
  %40 = getelementptr inbounds [4 x i8], ptr %7, i64 0, i64 0
  %41 = load i8, ptr %40, align 1, !tbaa !15
  %42 = zext i8 %41 to i64
  %43 = getelementptr inbounds nuw [256 x i8], ptr @MD1, i64 0, i64 %42
  %44 = load i8, ptr %43, align 1, !tbaa !15
  %45 = zext i8 %44 to i32
  %46 = getelementptr inbounds [4 x i8], ptr %7, i64 0, i64 1
  %47 = load i8, ptr %46, align 1, !tbaa !15
  %48 = zext i8 %47 to i64
  %49 = getelementptr inbounds nuw [256 x i8], ptr @MD2, i64 0, i64 %48
  %50 = load i8, ptr %49, align 1, !tbaa !15
  %51 = zext i8 %50 to i32
  %52 = xor i32 %45, %51
  %53 = getelementptr inbounds [4 x i8], ptr %7, i64 0, i64 2
  %54 = load i8, ptr %53, align 1, !tbaa !15
  %55 = zext i8 %54 to i64
  %56 = getelementptr inbounds nuw [256 x i8], ptr @MD2, i64 0, i64 %55
  %57 = load i8, ptr %56, align 1, !tbaa !15
  %58 = zext i8 %57 to i32
  %59 = xor i32 %52, %58
  %60 = getelementptr inbounds [4 x i8], ptr %7, i64 0, i64 3
  %61 = load i8, ptr %60, align 1, !tbaa !15
  %62 = zext i8 %61 to i32
  %63 = xor i32 %59, %62
  %64 = trunc i32 %63 to i8
  %65 = getelementptr inbounds [4 x i8], ptr %8, i64 0, i64 1
  store i8 %64, ptr %65, align 1, !tbaa !15
  %66 = getelementptr inbounds [4 x i8], ptr %7, i64 0, i64 0
  %67 = load i8, ptr %66, align 1, !tbaa !15
  %68 = zext i8 %67 to i64
  %69 = getelementptr inbounds nuw [256 x i8], ptr @MD2, i64 0, i64 %68
  %70 = load i8, ptr %69, align 1, !tbaa !15
  %71 = zext i8 %70 to i32
  %72 = getelementptr inbounds [4 x i8], ptr %7, i64 0, i64 1
  %73 = load i8, ptr %72, align 1, !tbaa !15
  %74 = zext i8 %73 to i64
  %75 = getelementptr inbounds nuw [256 x i8], ptr @MD1, i64 0, i64 %74
  %76 = load i8, ptr %75, align 1, !tbaa !15
  %77 = zext i8 %76 to i32
  %78 = xor i32 %71, %77
  %79 = getelementptr inbounds [4 x i8], ptr %7, i64 0, i64 2
  %80 = load i8, ptr %79, align 1, !tbaa !15
  %81 = zext i8 %80 to i32
  %82 = xor i32 %78, %81
  %83 = getelementptr inbounds [4 x i8], ptr %7, i64 0, i64 3
  %84 = load i8, ptr %83, align 1, !tbaa !15
  %85 = zext i8 %84 to i64
  %86 = getelementptr inbounds nuw [256 x i8], ptr @MD2, i64 0, i64 %85
  %87 = load i8, ptr %86, align 1, !tbaa !15
  %88 = zext i8 %87 to i32
  %89 = xor i32 %82, %88
  %90 = trunc i32 %89 to i8
  %91 = getelementptr inbounds [4 x i8], ptr %8, i64 0, i64 2
  store i8 %90, ptr %91, align 1, !tbaa !15
  %92 = getelementptr inbounds [4 x i8], ptr %7, i64 0, i64 0
  %93 = load i8, ptr %92, align 1, !tbaa !15
  %94 = zext i8 %93 to i64
  %95 = getelementptr inbounds nuw [256 x i8], ptr @MD2, i64 0, i64 %94
  %96 = load i8, ptr %95, align 1, !tbaa !15
  %97 = zext i8 %96 to i32
  %98 = getelementptr inbounds [4 x i8], ptr %7, i64 0, i64 1
  %99 = load i8, ptr %98, align 1, !tbaa !15
  %100 = zext i8 %99 to i32
  %101 = xor i32 %97, %100
  %102 = getelementptr inbounds [4 x i8], ptr %7, i64 0, i64 2
  %103 = load i8, ptr %102, align 1, !tbaa !15
  %104 = zext i8 %103 to i64
  %105 = getelementptr inbounds nuw [256 x i8], ptr @MD2, i64 0, i64 %104
  %106 = load i8, ptr %105, align 1, !tbaa !15
  %107 = zext i8 %106 to i32
  %108 = xor i32 %101, %107
  %109 = getelementptr inbounds [4 x i8], ptr %7, i64 0, i64 3
  %110 = load i8, ptr %109, align 1, !tbaa !15
  %111 = zext i8 %110 to i64
  %112 = getelementptr inbounds nuw [256 x i8], ptr @MD1, i64 0, i64 %111
  %113 = load i8, ptr %112, align 1, !tbaa !15
  %114 = zext i8 %113 to i32
  %115 = xor i32 %108, %114
  %116 = trunc i32 %115 to i8
  %117 = getelementptr inbounds [4 x i8], ptr %8, i64 0, i64 3
  store i8 %116, ptr %117, align 1, !tbaa !15
  %118 = getelementptr inbounds [4 x i8], ptr %8, i64 0, i64 0
  %119 = load i32, ptr %118, align 1, !tbaa !15
  call void @llvm.lifetime.end.p0(i64 4, ptr %8) #6
  call void @llvm.lifetime.end.p0(i64 4, ptr %7) #6
  ret i32 %119
}