; Function Attrs: mustprogress nofree norecurse nosync nounwind willreturn memory(argmem: readwrite) uwtable
define internal fastcc i32 @tf_h(i32 noundef %0, ptr noundef nonnull readonly captures(none) %1, i32 noundef %2) unnamed_addr #6 {
  %4 = alloca [4 x i8], align 4
  call void @llvm.lifetime.start.p0(i64 4, ptr nonnull %4) #9
  store i32 %0, ptr %4, align 4, !tbaa !9
  call fastcc void @tf_h0(ptr noundef %4, ptr noundef nonnull %1, i32 noundef %2)
  %5 = load i8, ptr %4, align 4, !tbaa !9
  %6 = getelementptr inbounds nuw i8, ptr %4, i64 1
  %7 = load i8, ptr %6, align 1, !tbaa !9
  %8 = zext i8 %7 to i64
  %9 = getelementptr inbounds nuw [256 x i8], ptr @MD2, i64 0, i64 %8
  %10 = load i8, ptr %9, align 1, !tbaa !9
  %11 = getelementptr inbounds nuw i8, ptr %4, i64 2
  %12 = load i8, ptr %11, align 2, !tbaa !9
  %13 = zext i8 %12 to i64
  %14 = getelementptr inbounds nuw [256 x i8], ptr @MD1, i64 0, i64 %13
  %15 = load i8, ptr %14, align 1, !tbaa !9
  %16 = getelementptr inbounds nuw i8, ptr %4, i64 3
  %17 = load i8, ptr %16, align 1, !tbaa !9
  %18 = zext i8 %17 to i64
  %19 = getelementptr inbounds nuw [256 x i8], ptr @MD1, i64 0, i64 %18
  %20 = load i8, ptr %19, align 1, !tbaa !9
  %21 = xor i8 %5, %15
  %22 = xor i8 %21, %10
  %23 = xor i8 %22, %20
  %24 = zext i8 %5 to i64
  %25 = getelementptr inbounds nuw [256 x i8], ptr @MD1, i64 0, i64 %24
  %26 = load i8, ptr %25, align 1, !tbaa !9
  %27 = getelementptr inbounds nuw [256 x i8], ptr @MD2, i64 0, i64 %13
  %28 = load i8, ptr %27, align 1, !tbaa !9
  %29 = xor i8 %10, %26
  %30 = xor i8 %29, %17
  %31 = xor i8 %30, %28
  %32 = getelementptr inbounds nuw [256 x i8], ptr @MD2, i64 0, i64 %24
  %33 = load i8, ptr %32, align 1, !tbaa !9
  %34 = getelementptr inbounds nuw [256 x i8], ptr @MD1, i64 0, i64 %8
  %35 = load i8, ptr %34, align 1, !tbaa !9
  %36 = getelementptr inbounds nuw [256 x i8], ptr @MD2, i64 0, i64 %18
  %37 = load i8, ptr %36, align 1, !tbaa !9
  %38 = xor i8 %35, %37
  %39 = xor i8 %38, %12
  %40 = xor i8 %39, %33
  %41 = xor i8 %20, %7
  %42 = xor i8 %41, %28
  %43 = xor i8 %42, %33
  %.sroa.6.0.insert.ext = zext i8 %43 to i32
  %.sroa.6.0.insert.shift = shl nuw i32 %.sroa.6.0.insert.ext, 24
  %.sroa.5.0.insert.ext = zext i8 %40 to i32
  %.sroa.5.0.insert.shift = shl nuw nsw i32 %.sroa.5.0.insert.ext, 16
  %.sroa.5.0.insert.insert = or disjoint i32 %.sroa.5.0.insert.shift, %.sroa.6.0.insert.shift
  %.sroa.4.0.insert.ext = zext i8 %31 to i32
  %.sroa.4.0.insert.shift = shl nuw nsw i32 %.sroa.4.0.insert.ext, 8
  %.sroa.4.0.insert.insert = or disjoint i32 %.sroa.5.0.insert.insert, %.sroa.4.0.insert.shift
  %.sroa.0.0.insert.ext = zext i8 %23 to i32
  %.sroa.0.0.insert.insert = or disjoint i32 %.sroa.4.0.insert.insert, %.sroa.0.0.insert.ext
  call void @llvm.lifetime.end.p0(i64 4, ptr nonnull %4) #9
  ret i32 %.sroa.0.0.insert.insert
}